; Function Attrs: mustprogress nounwind uwtable
define dso_local noundef ptr @_ZNK5clang6driver9ToolChain17getOffloadBundlerEv(ptr noundef nonnull align 8 dereferenceable(2168) %0) local_unnamed_addr #0 align 2 {
  %2 = getelementptr inbounds nuw i8, ptr %0, i64 1728
  %3 = load ptr, ptr %2, align 8
  %.not = icmp eq ptr %3, null
  br i1 %.not, label %4, label %_ZNSt10unique_ptrIN5clang6driver4ToolESt14default_deleteIS2_EE5resetEPS2_.exit

4:                                                ; preds = %1
  %5 = tail call noalias noundef nonnull dereferenceable(32) ptr @_Znwm(i64 noundef 32) #29
  tail call void @_ZN5clang6driver4ToolC2EPKcS3_RKNS0_9ToolChainE(ptr noundef nonnull align 8 dereferenceable(32) %5, ptr noundef nonnull @.str.755, ptr noundef nonnull @.str.756, ptr noundef nonnull align 8 dereferenceable(2168) %0) #25
  store ptr getelementptr inbounds inrange(-16, 88) (i8, ptr @_ZTVN5clang6driver5tools14OffloadBundlerE, i64 16), ptr %5, align 8
  %6 = load ptr, ptr %2, align 8
  store ptr %5, ptr %2, align 8
  %.not.i.i = icmp eq ptr %6, null
  br i1 %.not.i.i, label %_ZNSt10unique_ptrIN5clang6driver4ToolESt14default_deleteIS2_EE5resetEPS2_.exit, label %_ZNKSt14default_deleteIN5clang6driver4ToolEEclEPS2_.exit.i.i

_ZNKSt14default_deleteIN5clang6driver4ToolEEclEPS2_.exit.i.i: ; preds = %4
  %7 = load ptr, ptr %6, align 8
  %8 = getelementptr inbounds i8, ptr %7, i64 8
  %9 = load ptr, ptr %8, align 8
  tail call void %9(ptr noundef nonnull align 8 dereferenceable(32) %6) #25
  %.pre = load ptr, ptr %2, align 8
  br label %_ZNSt10unique_ptrIN5clang6driver4ToolESt14default_deleteIS2_EE5resetEPS2_.exit

_ZNSt10unique_ptrIN5clang6driver4ToolESt14default_deleteIS2_EE5resetEPS2_.exit: ; preds = %_ZNKSt14default_deleteIN5clang6driver4ToolEEclEPS2_.exit.i.i, %4, %1
  %10 = phi ptr [ %.pre, %_ZNKSt14default_deleteIN5clang6driver4ToolEEclEPS2_.exit.i.i ], [ %5, %4 ], [ %3, %1 ]
  ret ptr %10
}